; Function Attrs: nounwind uwtable
define ptr @l_Lean_Compiler_LCNF_ToLCNF_applyToAny___lambda__1___boxed(ptr noundef %0, ptr noundef %1) #1 {
  %3 = ptrtoint ptr %1 to i64
  %4 = and i64 %3, 1
  %.not.i10.i = icmp eq i64 %4, 0
  br i1 %.not.i10.i, label %8, label %5

5:                                                ; preds = %2
  %6 = lshr i64 %3, 1
  %7 = trunc i64 %6 to i32
  br label %lean_obj_tag.exit.i

8:                                                ; preds = %2
  %9 = getelementptr i8, ptr %1, i64 4
  %.val.i.i = load i32, ptr %9, align 4
  %10 = lshr i32 %.val.i.i, 24
  br label %lean_obj_tag.exit.i

lean_obj_tag.exit.i:                              ; preds = %8, %5
  %.0.i.i = phi i32 [ %7, %5 ], [ %10, %8 ]
  %11 = icmp eq i32 %.0.i.i, 1
  br i1 %11, label %12, label %l_Lean_Compiler_LCNF_ToLCNF_applyToAny___lambda__1.exit

12:                                               ; preds = %lean_obj_tag.exit.i
  %13 = getelementptr inbounds nuw i8, ptr %1, i64 8
  %14 = load ptr, ptr %13, align 8, !tbaa !9
  %15 = tail call ptr @l_Lean_RBNode_findCore___at___private_Lean_Meta_FunInfo_0__Lean_Meta_getFunInfoAux___spec__2(ptr noundef %0, ptr noundef %14) #5
  %16 = ptrtoint ptr %15 to i64
  %17 = and i64 %16, 1
  %.not.i11.i = icmp eq i64 %17, 0
  br i1 %.not.i11.i, label %lean_obj_tag.exit14.thread.i, label %lean_obj_tag.exit14.i

lean_obj_tag.exit14.i:                            ; preds = %12
  %18 = and i64 %16, 8589934590
  %19 = icmp eq i64 %18, 0
  br i1 %19, label %l_Lean_Compiler_LCNF_ToLCNF_applyToAny___lambda__1.exit, label %lean_dec.exit.i

lean_obj_tag.exit14.thread.i:                     ; preds = %12
  %20 = getelementptr i8, ptr %15, i64 4
  %.val.i13.i = load i32, ptr %20, align 4
  %21 = icmp ult i32 %.val.i13.i, 16777216
  br i1 %21, label %l_Lean_Compiler_LCNF_ToLCNF_applyToAny___lambda__1.exit, label %.thread.i

.thread.i:                                        ; preds = %lean_obj_tag.exit14.thread.i
  %22 = load i32, ptr %15, align 4, !tbaa !4
  %23 = icmp sgt i32 %22, 1
  br i1 %23, label %24, label %26, !prof !11

24:                                               ; preds = %.thread.i
  %25 = add nsw i32 %22, -1
  store i32 %25, ptr %15, align 4, !tbaa !4
  br label %lean_dec.exit.i

26:                                               ; preds = %.thread.i
  %.not.i.i = icmp eq i32 %22, 0
  br i1 %.not.i.i, label %lean_dec.exit.i, label %27

27:                                               ; preds = %26
  tail call void @lean_dec_ref_cold(ptr noundef nonnull %15) #5
  br label %lean_dec.exit.i

lean_dec.exit.i:                                  ; preds = %27, %26, %24, %lean_obj_tag.exit14.i
  %28 = load ptr, ptr @l_Lean_Compiler_LCNF_ToLCNF_applyToAny___lambda__1___closed__1, align 8, !tbaa !9
  br label %l_Lean_Compiler_LCNF_ToLCNF_applyToAny___lambda__1.exit

l_Lean_Compiler_LCNF_ToLCNF_applyToAny___lambda__1.exit: ; preds = %lean_obj_tag.exit.i, %lean_obj_tag.exit14.i, %lean_obj_tag.exit14.thread.i, %lean_dec.exit.i
  %.1.i = phi ptr [ %28, %lean_dec.exit.i ], [ inttoptr (i64 1 to ptr), %lean_obj_tag.exit14.i ], [ inttoptr (i64 1 to ptr), %lean_obj_tag.exit14.thread.i ], [ inttoptr (i64 1 to ptr), %lean_obj_tag.exit.i ]
  br i1 %.not.i10.i, label %29, label %lean_dec.exit5

29:                                               ; preds = %l_Lean_Compiler_LCNF_ToLCNF_applyToAny___lambda__1.exit
  %30 = load i32, ptr %1, align 4, !tbaa !4
  %31 = icmp sgt i32 %30, 1
  br i1 %31, label %32, label %34, !prof !11

32:                                               ; preds = %29
  %33 = add nsw i32 %30, -1
  store i32 %33, ptr %1, align 4, !tbaa !4
  br label %lean_dec.exit5

34:                                               ; preds = %29
  %.not.i = icmp eq i32 %30, 0
  br i1 %.not.i, label %lean_dec.exit5, label %35

35:                                               ; preds = %34
  tail call void @lean_dec_ref_cold(ptr noundef nonnull %1) #5
  br label %lean_dec.exit5

lean_dec.exit5:                                   ; preds = %35, %34, %32, %l_Lean_Compiler_LCNF_ToLCNF_applyToAny___lambda__1.exit
  %36 = ptrtoint ptr %0 to i64
  %37 = and i64 %36, 1
  %.not8 = icmp eq i64 %37, 0
  br i1 %.not8, label %38, label %lean_dec.exit

38:                                               ; preds = %lean_dec.exit5
  %39 = load i32, ptr %0, align 4, !tbaa !4
  %40 = icmp sgt i32 %39, 1
  br i1 %40, label %41, label %43, !prof !11

41:                                               ; preds = %38
  %42 = add nsw i32 %39, -1
  store i32 %42, ptr %0, align 4, !tbaa !4
  br label %lean_dec.exit

43:                                               ; preds = %38
  %.not.i6 = icmp eq i32 %39, 0
  br i1 %.not.i6, label %lean_dec.exit, label %44

44:                                               ; preds = %43
  tail call void @lean_dec_ref_cold(ptr noundef nonnull %0) #5
  br label %lean_dec.exit

lean_dec.exit:                                    ; preds = %44, %43, %41, %lean_dec.exit5
  ret ptr %.1.i
}